target datalayout = "e-m:e-p270:32:32-p271:32:32-p272:64:64-i64:64-i128:128-f80:128-n8:16:32:64-S128"
target triple = "x86_64-pc-linux-gnu"

%struct.expert_field = type { i32, i32 }

@hf_isis_lsp_rt_capable_router_id = internal global i32 0, align 4
@hf_isis_lsp_rt_capable_flag_s = internal global i32 0, align 4
@hf_isis_lsp_rt_capable_flag_d = internal global i32 0, align 4
@ei_isis_lsp_subtlv = internal global %struct.expert_field zeroinitializer, align 4
@ei_isis_lsp_short_clv = internal global %struct.expert_field zeroinitializer, align 4
@.str.884 = private unnamed_addr constant [29 x i8] c"Short type %d TLV (%d vs %d)\00", align 1
@.str.885 = private unnamed_addr constant [37 x i8] c"Unknown SubTlv: Type: %d, Length: %d\00", align 1

; Function Attrs: null_pointer_is_valid sspstrong uwtable
define internal void @dissect_isis_rt_capable_clv(ptr noundef %0, ptr noundef %1, ptr noundef %2, i32 noundef %3, ptr noundef %4, i32 noundef %5) #0 {
  %7 = alloca ptr, align 8
  %8 = alloca ptr, align 8
  %9 = alloca ptr, align 8
  %10 = alloca i32, align 4
  %11 = alloca ptr, align 8
  %12 = alloca i32, align 4
  %13 = alloca i8, align 1
  %14 = alloca i8, align 1
  %15 = alloca i32, align 4
  store ptr %0, ptr %7, align 8
  store ptr %1, ptr %8, align 8
  store ptr %2, ptr %9, align 8
  store i32 %3, ptr %10, align 4
  store ptr %4, ptr %11, align 8
  store i32 %5, ptr %12, align 4
  call void @llvm.lifetime.start.p0(i64 1, ptr %13) #4
  call void @llvm.lifetime.start.p0(i64 1, ptr %14) #4
  %16 = load ptr, ptr %9, align 8
  %17 = load i32, ptr @hf_isis_lsp_rt_capable_router_id, align 4
  %18 = load ptr, ptr %7, align 8
  %19 = load i32, ptr %10, align 4
  %20 = call ptr @proto_tree_add_item(ptr noundef %16, i32 noundef %17, ptr noundef %18, i32 noundef %19, i32 noundef 4, i32 noundef 0)
  %21 = load i32, ptr %10, align 4
  %22 = add i32 %21, 4
  store i32 %22, ptr %10, align 4
  %23 = load i32, ptr %12, align 4
  %24 = sub i32 %23, 4
  store i32 %24, ptr %12, align 4
  %25 = load ptr, ptr %9, align 8
  %26 = load i32, ptr @hf_isis_lsp_rt_capable_flag_s, align 4
  %27 = load ptr, ptr %7, align 8
  %28 = load i32, ptr %10, align 4
  %29 = call ptr @proto_tree_add_item(ptr noundef %25, i32 noundef %26, ptr noundef %27, i32 noundef %28, i32 noundef 1, i32 noundef 0)
  %30 = load ptr, ptr %9, align 8
  %31 = load i32, ptr @hf_isis_lsp_rt_capable_flag_d, align 4
  %32 = load ptr, ptr %7, align 8
  %33 = load i32, ptr %10, align 4
  %34 = call ptr @proto_tree_add_item(ptr noundef %30, i32 noundef %31, ptr noundef %32, i32 noundef %33, i32 noundef 1, i32 noundef 0)
  %35 = load i32, ptr %12, align 4
  %36 = sub i32 %35, 1
  store i32 %36, ptr %12, align 4
  %37 = load i32, ptr %10, align 4
  %38 = add i32 %37, 1
  store i32 %38, ptr %10, align 4
  br label %39

39:                                               ; preds = %95, %6
  %40 = load i32, ptr %12, align 4
  %41 = icmp sge i32 %40, 2
  br i1 %41, label %42, label %104

42:                                               ; preds = %39
  %43 = load ptr, ptr %7, align 8
  %44 = load i32, ptr %10, align 4
  %45 = call zeroext i8 @tvb_get_uint8(ptr noundef %43, i32 noundef %44)
  store i8 %45, ptr %13, align 1
  %46 = load ptr, ptr %7, align 8
  %47 = load i32, ptr %10, align 4
  %48 = add i32 %47, 1
  %49 = call zeroext i8 @tvb_get_uint8(ptr noundef %46, i32 noundef %48)
  store i8 %49, ptr %14, align 1
  %50 = load i32, ptr %12, align 4
  %51 = sub i32 %50, 2
  store i32 %51, ptr %12, align 4
  %52 = load i32, ptr %10, align 4
  %53 = add i32 %52, 2
  store i32 %53, ptr %10, align 4
  %54 = load i8, ptr %14, align 1
  %55 = zext i8 %54 to i32
  %56 = load i32, ptr %12, align 4
  %57 = icmp sgt i32 %55, %56
  br i1 %57, label %58, label %70

58:                                               ; preds = %42
  %59 = load ptr, ptr %9, align 8
  %60 = load ptr, ptr %8, align 8
  %61 = load ptr, ptr %7, align 8
  %62 = load i32, ptr %10, align 4
  %63 = sub i32 %62, 2
  %64 = load i8, ptr %13, align 1
  %65 = zext i8 %64 to i32
  %66 = load i8, ptr %14, align 1
  %67 = zext i8 %66 to i32
  %68 = load i32, ptr %12, align 4
  %69 = call ptr (ptr, ptr, ptr, ptr, i32, i32, ptr, ...) @proto_tree_add_expert_format(ptr noundef %59, ptr noundef %60, ptr noundef @ei_isis_lsp_short_clv, ptr noundef %61, i32 noundef %63, i32 noundef -1, ptr noundef @.str.884, i32 noundef %65, i32 noundef %67, i32 noundef %68)
  store i32 1, ptr %15, align 4
  br label %105

70:                                               ; preds = %42
  %71 = load ptr, ptr %7, align 8
  %72 = load ptr, ptr %8, align 8
  %73 = load ptr, ptr %9, align 8
  %74 = load i32, ptr %10, align 4
  %75 = load i8, ptr %13, align 1
  %76 = zext i8 %75 to i32
  %77 = load i8, ptr %14, align 1
  %78 = zext i8 %77 to i32
  %79 = call i32 @dissect_isis_trill_clv(ptr noundef %71, ptr noundef %72, ptr noundef %73, i32 noundef %74, i32 noundef %76, i32 noundef %78)
  %80 = icmp eq i32 %79, -1
  br i1 %80, label %81, label %95

81:                                               ; preds = %70
  %82 = load ptr, ptr %9, align 8
  %83 = load ptr, ptr %8, align 8
  %84 = load ptr, ptr %7, align 8
  %85 = load i32, ptr %10, align 4
  %86 = sub i32 %85, 2
  %87 = load i8, ptr %14, align 1
  %88 = zext i8 %87 to i32
  %89 = add i32 %88, 2
  %90 = load i8, ptr %13, align 1
  %91 = zext i8 %90 to i32
  %92 = load i8, ptr %14, align 1
  %93 = zext i8 %92 to i32
  %94 = call ptr (ptr, ptr, ptr, ptr, i32, i32, ptr, ...) @proto_tree_add_expert_format(ptr noundef %82, ptr noundef %83, ptr noundef @ei_isis_lsp_subtlv, ptr noundef %84, i32 noundef %86, i32 noundef %89, ptr noundef @.str.885, i32 noundef %91, i32 noundef %93)
  br label %95

95:                                               ; preds = %81, %70
  %96 = load i8, ptr %14, align 1
  %97 = zext i8 %96 to i32
  %98 = load i32, ptr %12, align 4
  %99 = sub i32 %98, %97
  store i32 %99, ptr %12, align 4
  %100 = load i8, ptr %14, align 1
  %101 = zext i8 %100 to i32
  %102 = load i32, ptr %10, align 4
  %103 = add i32 %102, %101
  store i32 %103, ptr %10, align 4
  br label %39, !llvm.loop !21

104:                                              ; preds = %39
  store i32 0, ptr %15, align 4
  br label %105

105:                                              ; preds = %104, %58
  call void @llvm.lifetime.end.p0(i64 1, ptr %14) #4
  call void @llvm.lifetime.end.p0(i64 1, ptr %13) #4
  %106 = load i32, ptr %15, align 4
  switch i32 %106, label %108 [
    i32 0, label %107
    i32 1, label %107
  ]

107:                                              ; preds = %105, %105
  ret void

108:                                              ; preds = %105
  unreachable
}