; Function Attrs: null_pointer_is_valid sspstrong uwtable
define internal void @dissect_isis_rt_capable_clv(ptr noundef %0, ptr noundef %1, ptr noundef %2, i32 noundef %3, ptr readnone captures(none) %4, i32 noundef %5) #0 {
  %7 = load i32, ptr @hf_isis_lsp_rt_capable_router_id, align 4
  %8 = tail call ptr @proto_tree_add_item(ptr noundef %2, i32 noundef %7, ptr noundef %0, i32 noundef %3, i32 noundef 4, i32 noundef 0)
  %9 = add i32 %3, 4
  %10 = load i32, ptr @hf_isis_lsp_rt_capable_flag_s, align 4
  %11 = tail call ptr @proto_tree_add_item(ptr noundef %2, i32 noundef %10, ptr noundef %0, i32 noundef %9, i32 noundef 1, i32 noundef 0)
  %12 = load i32, ptr @hf_isis_lsp_rt_capable_flag_d, align 4
  %13 = tail call ptr @proto_tree_add_item(ptr noundef %2, i32 noundef %12, ptr noundef %0, i32 noundef %9, i32 noundef 1, i32 noundef 0)
  %14 = add i32 %5, -5
  %15 = icmp sgt i32 %14, 1
  br i1 %15, label %.lr.ph.preheader, label %.loopexit

.lr.ph.preheader:                                 ; preds = %6
  %16 = add i32 %3, 5
  br label %.lr.ph

.lr.ph:                                           ; preds = %.lr.ph.preheader, %33
  %.053 = phi i32 [ %35, %33 ], [ %16, %.lr.ph.preheader ]
  %.04552 = phi i32 [ %34, %33 ], [ %14, %.lr.ph.preheader ]
  %17 = tail call zeroext i8 @tvb_get_uint8(ptr noundef %0, i32 noundef %.053)
  %18 = add i32 %.053, 1
  %19 = tail call zeroext i8 @tvb_get_uint8(ptr noundef %0, i32 noundef %18)
  %20 = add nsw i32 %.04552, -2
  %21 = add i32 %.053, 2
  %22 = zext i8 %19 to i32
  %23 = icmp samesign ult i32 %20, %22
  %24 = zext i8 %17 to i32
  br i1 %23, label %25, label %27

25:                                               ; preds = %.lr.ph
  %26 = tail call ptr (ptr, ptr, ptr, ptr, i32, i32, ptr, ...) @proto_tree_add_expert_format(ptr noundef %2, ptr noundef %1, ptr noundef nonnull @ei_isis_lsp_short_clv, ptr noundef %0, i32 noundef %.053, i32 noundef -1, ptr noundef nonnull @.str.884, i32 noundef %24, i32 noundef %22, i32 noundef %20)
  br label %.loopexit

27:                                               ; preds = %.lr.ph
  %28 = tail call fastcc i32 @dissect_isis_trill_clv(ptr noundef %0, ptr noundef %1, ptr noundef %2, i32 noundef %21, i32 noundef %24, i32 noundef %22)
  %29 = icmp eq i32 %28, -1
  br i1 %29, label %30, label %33

30:                                               ; preds = %27
  %31 = add nuw nsw i32 %22, 2
  %32 = tail call ptr (ptr, ptr, ptr, ptr, i32, i32, ptr, ...) @proto_tree_add_expert_format(ptr noundef %2, ptr noundef %1, ptr noundef nonnull @ei_isis_lsp_subtlv, ptr noundef %0, i32 noundef %.053, i32 noundef %31, ptr noundef nonnull @.str.885, i32 noundef %24, i32 noundef %22)
  br label %33

33:                                               ; preds = %30, %27
  %34 = sub nsw i32 %20, %22
  %35 = add i32 %21, %22
  %36 = icmp sgt i32 %34, 1
  br i1 %36, label %.lr.ph, label %.loopexit, !llvm.loop !21

.loopexit:                                        ; preds = %33, %6, %25
  ret void
}